Certificate:
    Data:
        Version: 3 (0x2)
        Serial Number: 8 (0x8)
        Signature Algorithm: sha1WithRSAEncryption
        Issuer: C=UK, ST=Cambridge, L=Cambridgeshire, O=Signpost, OU=changeme, CN=Signpost/name=Signpost/emailAddress=mail@host.domain
        Validity
            Not Before: Jan 12 10:51:25 2012 GMT
            Not After : Jan  9 10:51:25 2022 GMT
        Subject: C=UK, ST=Cambridge, L=Cambridgeshire, O=Signpost, OU=signpost-client, CN=client2/name=Signpost-client/emailAddress=mail@host.domain
        Subject Public Key Info:
            Public Key Algorithm: rsaEncryption
            RSA Public Key: (1024 bit)
                Modulus (1024 bit):
                    00:e3:b9:73:c7:dc:a5:14:e6:ed:4a:0d:20:c2:b9:
                    b8:ec:c2:cd:cc:40:cf:d8:cf:0e:e6:02:59:bf:7c:
                    ed:c0:c1:d3:75:55:87:28:d0:fb:9b:10:71:21:3c:
                    65:3e:77:a0:02:e4:3e:da:2a:14:5e:3a:99:06:02:
                    68:1e:6e:6a:8f:05:e5:81:5e:a7:40:c5:f0:4f:b5:
                    4a:9e:1b:ba:85:2b:d1:21:01:8c:5a:93:e3:c0:21:
                    7f:df:a4:50:f4:bb:3f:43:b6:1d:a0:05:58:72:dd:
                    a6:74:b2:f2:6c:34:c9:7b:ee:e6:58:9f:7c:a9:71:
                    15:82:1f:d2:42:1d:da:5f:09
                Exponent: 65537 (0x10001)
        X509v3 extensions:
            X509v3 Basic Constraints: 
                CA:FALSE
            Netscape Comment: 
                Easy-RSA Generated Certificate
            X509v3 Subject Key Identifier: 
                24:33:5E:FB:28:44:B4:2E:F1:47:92:7D:30:AD:58:A3:D0:32:3E:81
            X509v3 Authority Key Identifier: 
                keyid:6C:0C:2F:D4:31:67:6C:6F:26:CC:58:10:CE:63:E3:22:98:9F:4F:6C
                DirName:/C=UK/ST=Cambridge/L=Cambridgeshire/O=Signpost/OU=changeme/CN=Signpost/name=Signpost/emailAddress=mail@host.domain
                serial:B1:19:56:AA:D2:9A:54:8F

            X509v3 Extended Key Usage: 
                TLS Web Client Authentication
            X509v3 Key Usage: 
                Digital Signature
    Signature Algorithm: sha1WithRSAEncryption
        88:2e:c8:57:31:19:c9:14:25:ed:b5:17:70:7a:4a:45:fb:87:
        c6:e5:40:ad:25:68:2f:23:a1:58:91:de:75:ee:eb:01:14:d4:
        da:11:b0:3c:fc:29:f0:57:f6:cb:fc:79:9e:d7:3d:46:0f:ed:
        20:e4:31:a3:c4:18:a3:fc:b2:5a:1c:69:15:0a:4d:58:79:b7:
        2b:99:a3:49:05:0f:e8:c7:64:40:42:7e:a0:dc:2e:cb:07:ec:
        43:4f:77:cf:ef:ed:2a:d4:1b:95:db:d6:d0:24:0e:f4:16:0b:
        99:5f:2f:51:94:41:bc:c2:7d:9b:71:87:a6:df:da:dd:37:a8:
        ee:2a
-----BEGIN CERTIFICATE-----
MIIEMzCCA5ygAwIBAgIBCDANBgkqhkiG9w0BAQUFADCBpzELMAkGA1UEBhMCVUsx
EjAQBgNVBAgTCUNhbWJyaWRnZTEXMBUGA1UEBxMOQ2FtYnJpZGdlc2hpcmUxETAP
BgNVBAoTCFNpZ25wb3N0MREwDwYDVQQLEwhjaGFuZ2VtZTERMA8GA1UEAxMIU2ln
bnBvc3QxETAPBgNVBCkTCFNpZ25wb3N0MR8wHQYJKoZIhvcNAQkBFhBtYWlsQGhv
c3QuZG9tYWluMB4XDTEyMDExMjEwNTEyNVoXDTIyMDEwOTEwNTEyNVowgbQxCzAJ
BgNVBAYTAlVLMRIwEAYDVQQIEwlDYW1icmlkZ2UxFzAVBgNVBAcTDkNhbWJyaWRn
ZXNoaXJlMREwDwYDVQQKEwhTaWducG9zdDEYMBYGA1UECxMPc2lnbnBvc3QtY2xp
ZW50MRAwDgYDVQQDEwdjbGllbnQyMRgwFgYDVQQpEw9TaWducG9zdC1jbGllbnQx
HzAdBgkqhkiG9w0BCQEWEG1haWxAaG9zdC5kb21haW4wgZ8wDQYJKoZIhvcNAQEB
BQADgY0AMIGJAoGBAOO5c8fcpRTm7UoNIMK5uOzCzcxAz9jPDuYCWb987cDB03VV
hyjQ+5sQcSE8ZT53oALkPtoqFF46mQYCaB5uao8F5YFep0DF8E+1Sp4buoUr0SEB
jFqT48Ahf9+kUPS7P0O2HaAFWHLdpnSy8mw0yXvu5liffKlxFYIf0kId2l8JAgMB
AAGjggFeMIIBWjAJBgNVHRMEAjAAMC0GCWCGSAGG+EIBDQQgFh5FYXN5LVJTQSBH
ZW5lcmF0ZWQgQ2VydGlmaWNhdGUwHQYDVR0OBBYEFCQzXvsoRLQu8UeSfTCtWKPQ
Mj6BMIHcBgNVHSMEgdQwgdGAFGwML9QxZ2xvJsxYEM5j4yKYn09soYGtpIGqMIGn
MQswCQYDVQQGEwJVSzESMBAGA1UECBMJQ2FtYnJpZGdlMRcwFQYDVQQHEw5DYW1i
cmlkZ2VzaGlyZTERMA8GA1UEChMIU2lnbnBvc3QxETAPBgNVBAsTCGNoYW5nZW1l
MREwDwYDVQQDEwhTaWducG9zdDERMA8GA1UEKRMIU2lnbnBvc3QxHzAdBgkqhkiG
9w0BCQEWEG1haWxAaG9zdC5kb21haW6CCQCxGVaq0ppUjzATBgNVHSUEDDAKBggr
BgEFBQcDAjALBgNVHQ8EBAMCB4AwDQYJKoZIhvcNAQEFBQADgYEAiC7IVzEZyRQl
7bUXcHpKRfuHxuVArSVoLyOhWJHede7rARTU2hGwPPwp8Ff2y/x5ntc9Rg/tIOQx
o8QYo/yyWhxpFQpNWHm3K5mjSQUP6MdkQEJ+oNwuywfsQ093z+/tKtQbldvW0CQO
9BYLmV8vUZRBvMJ9m3GHpt/a3Teo7io=
-----END CERTIFICATE-----
